Certificate:
    Data:
        Version: 3 (0x2)
        Serial Number:
            f0:6c:4b:dc:80:3a:54:b3
    Signature Algorithm: sha256WithRSAEncryption
        Issuer: C=ZH, ST=SuZhou, O=Acmedcare, OU=Acmedcare, CN=Elve.Xu/emailAddress=iskp.me@gmail.com
        Validity
            Not Before: Jul 12 06:28:19 2018 GMT
            Not After : Jul 11 06:28:19 2021 GMT
        Subject: C=ZH, ST=SuZhou, O=Acmedcare, OU=Acmedcare, CN=Elve.Xu/emailAddress=iskp.me@gmail.com
        Subject Public Key Info:
            Public Key Algorithm: rsaEncryption
                Public-Key: (2048 bit)
                Modulus:
                    00:ac:ff:4e:cb:01:dd:b3:d5:f7:5d:97:6f:df:5a:
                    19:eb:ea:35:c7:4a:80:d9:5d:6a:8e:0c:53:77:2a:
                    62:85:47:94:11:f3:67:73:6a:b0:b7:e3:c4:93:f9:
                    74:cf:2d:5e:21:c9:51:d9:10:72:f0:00:a9:4c:cd:
                    cc:3f:8b:d6:6f:38:b5:1f:c0:ef:9c:3d:ea:00:c2:
                    c1:6a:f0:49:47:69:31:c0:f9:b7:66:4d:dd:b5:b1:
                    88:fa:ef:c2:c6:d2:f2:08:8a:e2:e8:7d:dc:6a:ae:
                    b9:47:4e:a6:56:47:08:1b:19:1c:4f:5a:96:6e:98:
                    7e:03:f1:87:aa:65:cd:d2:23:52:34:bc:a0:3d:d4:
                    63:0b:ec:d8:b6:8e:6f:a1:0c:8f:ee:de:4f:f9:82:
                    c4:f5:96:2d:d6:50:fe:51:09:c6:d5:49:36:46:66:
                    92:3b:89:f0:4c:6b:26:8a:47:28:a1:65:d1:e6:2d:
                    bc:b2:2d:10:41:69:f1:1f:52:b5:07:cd:ad:72:b5:
                    ab:37:36:f9:59:f2:59:45:fb:9b:9b:56:3f:51:fa:
                    78:0e:12:c8:10:ec:1a:7d:54:00:76:50:0b:c1:c8:
                    6e:17:29:f2:f4:ed:be:92:a7:6f:52:a0:8b:38:f8:
                    72:6f:7e:2d:3e:c8:ae:39:9a:b8:c8:af:98:74:ea:
                    84:1b
                Exponent: 65537 (0x10001)
        X509v3 extensions:
            X509v3 Subject Key Identifier: 
                81:B1:53:9E:5B:33:46:D1:0A:24:6F:D0:14:C0:7E:C4:68:FD:66:BE
            X509v3 Authority Key Identifier: 
                keyid:81:B1:53:9E:5B:33:46:D1:0A:24:6F:D0:14:C0:7E:C4:68:FD:66:BE

            X509v3 Basic Constraints: 
                CA:TRUE
    Signature Algorithm: sha256WithRSAEncryption
         02:b5:4d:3f:ff:e5:35:a5:05:70:ee:43:a5:9c:9b:7b:97:1c:
         5d:53:98:c8:e6:ae:b4:4e:45:76:a8:df:6d:54:ca:ef:d4:3f:
         15:28:48:b2:8d:08:64:47:86:3a:09:42:b4:d7:2c:d1:d2:87:
         93:67:33:e3:b5:09:9f:6b:72:35:39:b9:8e:d0:c6:02:ef:c8:
         2c:e7:a2:fc:ed:a7:b2:5e:a7:43:f7:4a:2c:62:35:5e:74:80:
         aa:93:6a:78:30:01:7e:05:4f:0c:11:08:ea:8b:45:30:b0:63:
         34:c6:46:17:5b:2c:19:96:0c:f8:fb:58:47:b6:b5:34:8e:2a:
         e5:1c:9b:01:3e:2c:59:1b:dc:ed:57:67:02:26:fc:da:a0:83:
         12:b4:8d:e5:4a:da:25:ac:60:f4:e0:a5:cb:11:d0:66:ad:bb:
         ae:15:44:54:11:8d:97:de:61:66:83:0d:a9:ac:e7:11:d1:36:
         92:b3:5f:07:46:4a:36:9b:90:f3:eb:1e:fb:e9:dc:55:f4:5b:
         ad:3f:5b:af:54:34:0e:83:68:78:61:47:95:4f:65:0f:bb:79:
         cc:7c:33:d6:d3:9c:de:1c:c0:fc:70:34:f0:37:df:ab:80:f5:
         bf:06:31:89:df:fa:cf:43:90:5d:68:11:ab:58:95:a4:52:0f:
         b5:a0:d6:ba
-----BEGIN CERTIFICATE-----
MIIDxzCCAq+gAwIBAgIJAPBsS9yAOlSzMA0GCSqGSIb3DQEBCwUAMHoxCzAJBgNV
BAYTAlpIMQ8wDQYDVQQIDAZTdVpob3UxEjAQBgNVBAoMCUFjbWVkY2FyZTESMBAG
A1UECwwJQWNtZWRjYXJlMRAwDgYDVQQDDAdFbHZlLlh1MSAwHgYJKoZIhvcNAQkB
FhFpc2twLm1lQGdtYWlsLmNvbTAeFw0xODA3MTIwNjI4MTlaFw0yMTA3MTEwNjI4
MTlaMHoxCzAJBgNVBAYTAlpIMQ8wDQYDVQQIDAZTdVpob3UxEjAQBgNVBAoMCUFj
bWVkY2FyZTESMBAGA1UECwwJQWNtZWRjYXJlMRAwDgYDVQQDDAdFbHZlLlh1MSAw
HgYJKoZIhvcNAQkBFhFpc2twLm1lQGdtYWlsLmNvbTCCASIwDQYJKoZIhvcNAQEB
BQADggEPADCCAQoCggEBAKz/TssB3bPV912Xb99aGevqNcdKgNldao4MU3cqYoVH
lBHzZ3NqsLfjxJP5dM8tXiHJUdkQcvAAqUzNzD+L1m84tR/A75w96gDCwWrwSUdp
McD5t2ZN3bWxiPrvwsbS8giK4uh93GquuUdOplZHCBsZHE9alm6YfgPxh6plzdIj
UjS8oD3UYwvs2LaOb6EMj+7eT/mCxPWWLdZQ/lEJxtVJNkZmkjuJ8ExrJopHKKFl
0eYtvLItEEFp8R9StQfNrXK1qzc2+VnyWUX7m5tWP1H6eA4SyBDsGn1UAHZQC8HI
bhcp8vTtvpKnb1Kgizj4cm9+LT7IrjmauMivmHTqhBsCAwEAAaNQME4wHQYDVR0O
BBYEFIGxU55bM0bRCiRv0BTAfsRo/Wa+MB8GA1UdIwQYMBaAFIGxU55bM0bRCiRv
0BTAfsRo/Wa+MAwGA1UdEwQFMAMBAf8wDQYJKoZIhvcNAQELBQADggEBAAK1TT//
5TWlBXDuQ6Wcm3uXHF1TmMjmrrRORXao321Uyu/UPxUoSLKNCGRHhjoJQrTXLNHS
h5NnM+O1CZ9rcjU5uY7QxgLvyCznovztp7Jep0P3SixiNV50gKqTangwAX4FTwwR
COqLRTCwYzTGRhdbLBmWDPj7WEe2tTSOKuUcmwE+LFkb3O1XZwIm/NqggxK0jeVK
2iWsYPTgpcsR0Gatu64VRFQRjZfeYWaDDams5xHRNpKzXwdGSjabkPPrHvvp3FX0
W60/W69UNA6DaHhhR5VPZQ+7ecx8M9bTnN4cwPxwNPA336uA9b8GMYnf+s9DkF1o
EatYlaRSD7Wg1ro=
-----END CERTIFICATE-----
